target datalayout = "e-m:e-p270:32:32-p271:32:32-p272:64:64-i64:64-i128:128-f80:128-n8:16:32:64-S128"
target triple = "x86_64-pc-linux-gnu"

%class.LibRaw = type { ptr, %struct.libraw_data_t, ptr, %struct.libraw_internal_data_t, [2048 x %struct.decode], ptr, ptr, [10 x %struct.tiff_ifd_t], %class.libraw_memmgr, %struct.libraw_callbacks_t, { i64, i64 }, { i64, i64 }, { i64, i64 }, ptr, ptr, ptr, i64, ptr, ptr, ptr, ptr }
%struct.libraw_data_t = type { ptr, %struct.libraw_image_sizes_t, %struct.libraw_iparams_t, %struct.libraw_lensinfo_t, %struct.libraw_makernotes_t, %struct.libraw_shootinginfo_t, %struct.libraw_output_params_t, %struct.libraw_raw_unpack_params_t, i32, i32, %struct.libraw_colordata_t, %struct.libraw_imgother_t, %struct.libraw_thumbnail_t, %struct.libraw_thumbnail_list_t, %struct.libraw_rawdata_t, ptr }
%struct.libraw_image_sizes_t = type { i16, i16, i16, i16, i16, i16, i16, i16, i32, double, i32, [8 x [4 x i32]], i16, [2 x %struct.libraw_raw_inset_crop_t] }
%struct.libraw_raw_inset_crop_t = type { i16, i16, i16, i16 }
%struct.libraw_iparams_t = type { [4 x i8], [64 x i8], [64 x i8], [64 x i8], [64 x i8], [64 x i8], i32, i32, i32, i32, i32, i32, [6 x [6 x i8]], [6 x [6 x i8]], [5 x i8], i32, ptr }
%struct.libraw_lensinfo_t = type { float, float, float, float, float, [128 x i8], [128 x i8], [128 x i8], [128 x i8], i16, %struct.libraw_nikonlens_t, %struct.libraw_dnglens_t, %struct.libraw_makernotes_lens_t }
%struct.libraw_nikonlens_t = type { float, i8, i8, i8, i8 }
%struct.libraw_dnglens_t = type { float, float, float, float }
%struct.libraw_makernotes_lens_t = type { i64, [128 x i8], i16, i16, i64, i16, i16, [64 x i8], i16, [16 x i8], [16 x i8], float, float, float, float, float, float, float, float, float, float, float, float, float, float, float, i64, [128 x i8], i64, [128 x i8], i64, [128 x i8], i16, float }
%struct.libraw_makernotes_t = type { %struct.libraw_canon_makernotes_t, %struct.libraw_nikon_makernotes_t, %struct.libraw_hasselblad_makernotes_t, %struct.libraw_fuji_info_t, %struct.libraw_olympus_makernotes_t, %struct.libraw_sony_info_t, %struct.libraw_kodak_makernotes_t, %struct.libraw_panasonic_makernotes_t, %struct.libraw_pentax_makernotes_t, %struct.libraw_p1_makernotes_t, %struct.libraw_ricoh_makernotes_t, %struct.libraw_samsung_makernotes_t, %struct.libraw_metadata_common_t }
%struct.libraw_canon_makernotes_t = type { i32, i32, i32, i32, [4 x i32], i32, [4 x i32], i16, i16, i8, i16, i16, i16, i16, i16, i16, i16, i16, i16, i16, i16, i16, i16, i32, float, i16, i16, i16, i32, i16, i32, i32, i16, i32, %struct.libraw_area_t, %struct.libraw_area_t, %struct.libraw_area_t, %struct.libraw_area_t, %struct.libraw_area_t, [2 x i16] }
%struct.libraw_area_t = type { i16, i16, i16, i16 }
%struct.libraw_nikon_makernotes_t = type { double, i16, i16, [7 x i8], i8, i8, [13 x i8], [20 x i8], [4 x i8], [4 x i8], [4 x i8], i8, i8, i8, i8, i8, [2 x i8], i8, i8, i8, i8, i8, [4 x i8], [4 x i8], i8, i16, i32, i32, i32, i32, [4 x double], i8, i8, i8, i32, i32, i32, i8, [4 x i16], i16, %struct.libraw_sensor_highspeed_crop_t, i16, i16, i16, i32, [20 x i8], [20 x i8], i32, i16, double, double, double }
%struct.libraw_sensor_highspeed_crop_t = type { i16, i16, i16, i16 }
%struct.libraw_hasselblad_makernotes_t = type { i32, double, [8 x i8], [64 x i8], [64 x i8], i32, i32, i32, i32, [32 x i8], [64 x i8], i32, [2 x i32], [2 x i32], [4 x [3 x double]] }
%struct.libraw_fuji_info_t = type { float, i16, i16, i16, i16, i16, i16, i16, i16, [33 x i8], [33 x i8], float, i16, i16, [2 x i16], i16, i32, i32, i16, [3 x i16], i16, i16, i16, i16, i16, i32, i16, [13 x i8], [5 x i8], [5 x i8], i32, i16, i32, i16, [9 x i16], [32 x i32], i32, i32, i32, [2 x float], i32 }
%struct.libraw_olympus_makernotes_t = type { [6 x i8], i16, [2 x i32], [5 x i16], i16, [2 x i16], i16, i16, [64 x i32], [5 x double], i16, i8, [3 x i16], [3 x i32], i16, i16, i16, i16, double, [4 x i16], [2 x i32], i8, i32, i16, i16 }
%struct.libraw_sony_info_t = type { i16, i8, i8, i32, i8, i32, i8, i8, i16, [2 x i16], i8, i8, i16, [10 x i8], i8, i8, [4 x i16], i16, i8, i8, i8, i16, i32, i16, [2 x i16], i16, i16, i16, i16, i16, i16, i16, i32, float, i16, i32, i32, i16, [20 x i8], i32, i16, i32, i8, i8, i16, i16, i16, i16, i16, i16, i16, i16, i16, i32, i16, [16 x i8], float }
%struct.libraw_kodak_makernotes_t = type { i16, i16, i16, i16, i16, i16, [3 x [3 x float]], [3 x [3 x float]], [3 x [3 x float]], [3 x [3 x float]], [3 x [3 x float]], [3 x [3 x float]], i16, i16, i16, i16, float, float }
%struct.libraw_panasonic_makernotes_t = type { i16, i16, [8 x float], i32, float, [3 x i32], i16, i16, i32, i32 }
%struct.libraw_pentax_makernotes_t = type { [4 x i8], [2 x i16], [2 x i16], i16, i32, i32, i16, i16, i8, i8, i16 }
%struct.libraw_p1_makernotes_t = type { [64 x i8], [64 x i8], [256 x i8], [64 x i8] }
%struct.libraw_ricoh_makernotes_t = type { i16, [2 x i32], [2 x i32], i16, i32, i32, i32, i32, i16, i16, i16, i16, i16, i16, double, double }
%struct.libraw_samsung_makernotes_t = type { [4 x i32], [4 x i32], [2 x i32], [11 x i32], double, i32, [32 x i8] }
%struct.libraw_metadata_common_t = type { float, float, float, float, float, float, float, float, float, float, float, float, float, float, float, float, i16, [128 x i8], float, [4 x %struct.libraw_afinfo_item_t], i32 }
%struct.libraw_afinfo_item_t = type { i32, i16, i32, i32, ptr }
%struct.libraw_shootinginfo_t = type { i16, i16, i16, i16, i16, i16, i16, [64 x i8], [64 x i8] }
%struct.libraw_output_params_t = type { [4 x i32], [4 x i32], [4 x double], [6 x double], [4 x float], float, float, i32, i32, i32, i32, i32, i32, i32, ptr, ptr, ptr, ptr, i32, i32, i32, i32, i32, i32, [4 x i32], i32, i32, float, float, i32, i32, i32, i32, i32, i32, i32, i32, float, float, i32, i32 }
%struct.libraw_raw_unpack_params_t = type { i32, i32, i32, i32, i32, i32, i32, float, [5 x i8], ptr }
%struct.libraw_colordata_t = type { [65536 x i16], [4104 x i32], i32, i32, i32, [4 x i64], float, float, [8 x [8 x i16]], [4 x float], [4 x float], [3 x [4 x float]], [3 x [4 x float]], [3 x [4 x float]], [4 x [3 x float]], %struct.ph1_t, float, float, [64 x i8], [64 x i8], [64 x i8], [64 x i8], [17 x i8], [64 x i8], ptr, i32, [8 x i32], [2 x %struct.libraw_dng_color_t], %struct.libraw_dng_levels_t, [256 x [4 x i32]], [64 x [5 x float]], i32, [2 x %struct.libraw_P1_color_t], i32, i32 }
%struct.ph1_t = type { i32, i32, i32, i32, i32, i32, i32, i32, float }
%struct.libraw_dng_color_t = type { i32, i16, [4 x [4 x float]], [4 x [3 x float]], [3 x [4 x float]] }
%struct.libraw_dng_levels_t = type { i32, [4104 x i32], i32, [4104 x float], float, [4 x i32], [4 x i16], [4 x float], i32, [4 x float], [4 x float], float, float }
%struct.libraw_P1_color_t = type { [9 x float] }
%struct.libraw_imgother_t = type { float, float, float, float, i64, i32, [32 x i32], %struct.libraw_gps_info_t, [512 x i8], [64 x i8], [4 x float] }
%struct.libraw_gps_info_t = type { [3 x float], [3 x float], [3 x float], float, i8, i8, i8, i8, i8 }
%struct.libraw_thumbnail_t = type { i32, i16, i16, i32, i32, ptr }
%struct.libraw_thumbnail_list_t = type { i32, [8 x %struct.libraw_thumbnail_item_t] }
%struct.libraw_thumbnail_item_t = type { i32, i16, i16, i16, i32, i32, i64 }
%struct.libraw_rawdata_t = type { ptr, ptr, ptr, ptr, ptr, ptr, ptr, ptr, ptr, %struct.libraw_iparams_t, %struct.libraw_image_sizes_t, %struct.libraw_internal_output_params_t, %struct.libraw_colordata_t }
%struct.libraw_internal_output_params_t = type { i32, i32, i32, i16, i16 }
%struct.libraw_internal_data_t = type { %struct.internal_data_t, %struct.libraw_internal_output_params_t, %struct.output_data_t, %struct.identify_data_t, %struct.unpacker_data_t }
%struct.internal_data_t = type { ptr, ptr, i32, ptr, i64, i64, [4 x i32] }
%struct.output_data_t = type { ptr, ptr }
%struct.identify_data_t = type { i32, i64, i64, i32, i32, i32 }
%struct.unpacker_data_t = type { i16, [4 x i16], [3 x i16], i32, i64, i64, i64, i64, i64, i64, i32, i32, i32, i32, i32, i32, i32, i32, i32, i32, i32, i32, i32, i32, i32, i32, i32, i64, i32, i32, i32, i32, i32, i32, i32, i32, i32, %struct.pana8_tags_t, [16 x %struct.crx_data_header_t], i32, i32, i16, i16, i32, i32, i32, i32, i32, i32, i32, [20 x i32], i16 }
%struct.pana8_tags_t = type { [6 x i32], [6 x i16], i16, [4 x i16], [17 x i16], [17 x i16], [17 x i16], i16, i16, [5 x i64], [5 x i16], [5 x i32], [5 x i16], [5 x i16] }
%struct.crx_data_header_t = type { i32, i32, i32, i32, i32, i32, i32, i32, i32, i32, i32, i32, i32, i32, i32, i64, i32, ptr, i32, i32, i32, ptr, i32, ptr }
%struct.decode = type { [2 x ptr], i32 }
%struct.tiff_ifd_t = type { i32, i32, i32, i32, i32, i32, i32, i32, i32, i32, i32, i32, i32, i32, i32, ptr, i32, ptr, i32, i32, i32, i32, i32, i32, i32, float, i64, i64, i32, [2 x %struct.libraw_dng_color_t], %struct.libraw_dng_levels_t, i32 }
%class.libraw_memmgr = type <{ ptr, i32, [4 x i8] }>
%struct.libraw_callbacks_t = type { ptr, ptr, ptr, ptr, ptr, ptr, ptr, ptr, ptr, ptr, ptr, ptr, ptr, ptr, ptr, ptr, ptr }

; Function Attrs: mustprogress uwtable
define noundef i32 @_ZN6LibRaw7thumbOKEx(ptr noundef nonnull align 8 dereferenceable(767680) %0, i64 noundef %1) #0 align 2 {
  %3 = alloca i32, align 4
  %4 = alloca ptr, align 8
  %5 = alloca i64, align 8
  %6 = alloca i64, align 8
  %7 = alloca i32, align 4
  %8 = alloca i32, align 4
  %9 = alloca i32, align 4
  store ptr %0, ptr %4, align 8, !tbaa !6
  store i64 %1, ptr %5, align 8, !tbaa !76
  %10 = load ptr, ptr %4, align 8
  %11 = getelementptr inbounds nuw %class.LibRaw, ptr %10, i32 0, i32 3
  %12 = getelementptr inbounds nuw %struct.libraw_internal_data_t, ptr %11, i32 0, i32 0
  %13 = getelementptr inbounds nuw %struct.internal_data_t, ptr %12, i32 0, i32 0
  %14 = load ptr, ptr %13, align 8, !tbaa !78
  %15 = icmp ne ptr %14, null
  br i1 %15, label %17, label %16

16:                                               ; preds = %2
  store i32 0, ptr %3, align 4
  br label %167

17:                                               ; preds = %2
  %18 = getelementptr inbounds nuw %class.LibRaw, ptr %10, i32 0, i32 3
  %19 = getelementptr inbounds nuw %struct.libraw_internal_data_t, ptr %18, i32 0, i32 0
  %20 = getelementptr inbounds nuw %struct.internal_data_t, ptr %19, i32 0, i32 5
  %21 = load i64, ptr %20, align 8, !tbaa !77
  %22 = icmp ne i64 %21, 0
  br i1 %22, label %40, label %23

23:                                               ; preds = %17
  %24 = getelementptr inbounds nuw %class.LibRaw, ptr %10, i32 0, i32 1
  %25 = getelementptr inbounds nuw %struct.libraw_data_t, ptr %24, i32 0, i32 12
  %26 = getelementptr inbounds nuw %struct.libraw_thumbnail_t, ptr %25, i32 0, i32 3
  %27 = load i32, ptr %26, align 8, !tbaa !94
  %28 = icmp ugt i32 %27, 0
  br i1 %28, label %29, label %39

29:                                               ; preds = %23
  %30 = getelementptr inbounds nuw %class.LibRaw, ptr %10, i32 0, i32 11
  %31 = load { i64, i64 }, ptr %30, align 8, !tbaa !128
  %32 = extractvalue { i64, i64 } %31, 0
  %33 = icmp eq i64 %32, ptrtoint (ptr @_ZN6LibRaw17broadcom_load_rawEv to i64)
  %34 = icmp eq i64 %32, 0
  %35 = extractvalue { i64, i64 } %31, 1
  %36 = icmp eq i64 %35, 0
  %37 = or i1 %34, %36
  %38 = and i1 %33, %37
  br i1 %38, label %40, label %39

39:                                               ; preds = %29, %23
  store i32 0, ptr %3, align 4
  br label %167

40:                                               ; preds = %29, %17
  call void @llvm.lifetime.start.p0(i64 8, ptr %6) #9
  %41 = getelementptr inbounds nuw %class.LibRaw, ptr %10, i32 0, i32 3
  %42 = getelementptr inbounds nuw %struct.libraw_internal_data_t, ptr %41, i32 0, i32 0
  %43 = getelementptr inbounds nuw %struct.internal_data_t, ptr %42, i32 0, i32 0
  %44 = load ptr, ptr %43, align 8, !tbaa !78
  %45 = load ptr, ptr %44, align 8, !tbaa !79
  %46 = getelementptr inbounds ptr, ptr %45, i64 6
  %47 = load ptr, ptr %46, align 8
  %48 = call noundef i64 %47(ptr noundef nonnull align 8 dereferenceable(8) %44)
  store i64 %48, ptr %6, align 8, !tbaa !76
  %49 = load i64, ptr %6, align 8, !tbaa !76
  %50 = icmp sgt i64 %49, 4294967295
  br i1 %50, label %51, label %52

51:                                               ; preds = %40
  store i32 0, ptr %3, align 4
  store i32 1, ptr %7, align 4
  br label %166

52:                                               ; preds = %40
  call void @llvm.lifetime.start.p0(i64 4, ptr %8) #9
  store i32 0, ptr %8, align 4, !tbaa !88
  call void @llvm.lifetime.start.p0(i64 4, ptr %9) #9
  %53 = getelementptr inbounds nuw %class.LibRaw, ptr %10, i32 0, i32 1
  %54 = getelementptr inbounds nuw %struct.libraw_data_t, ptr %53, i32 0, i32 12
  %55 = getelementptr inbounds nuw %struct.libraw_thumbnail_t, ptr %54, i32 0, i32 4
  %56 = load i32, ptr %55, align 4, !tbaa !93
  %57 = icmp sgt i32 %56, 0
  br i1 %57, label %58, label %69

58:                                               ; preds = %52
  %59 = getelementptr inbounds nuw %class.LibRaw, ptr %10, i32 0, i32 1
  %60 = getelementptr inbounds nuw %struct.libraw_data_t, ptr %59, i32 0, i32 12
  %61 = getelementptr inbounds nuw %struct.libraw_thumbnail_t, ptr %60, i32 0, i32 4
  %62 = load i32, ptr %61, align 4, !tbaa !93
  %63 = icmp slt i32 %62, 4
  br i1 %63, label %64, label %69

64:                                               ; preds = %58
  %65 = getelementptr inbounds nuw %class.LibRaw, ptr %10, i32 0, i32 1
  %66 = getelementptr inbounds nuw %struct.libraw_data_t, ptr %65, i32 0, i32 12
  %67 = getelementptr inbounds nuw %struct.libraw_thumbnail_t, ptr %66, i32 0, i32 4
  %68 = load i32, ptr %67, align 4, !tbaa !93
  br label %70

69:                                               ; preds = %58, %52
  br label %70

70:                                               ; preds = %69, %64
  %71 = phi i32 [ %68, %64 ], [ 3, %69 ]
  store i32 %71, ptr %9, align 4, !tbaa !88
  %72 = getelementptr inbounds nuw %class.LibRaw, ptr %10, i32 0, i32 3
  %73 = getelementptr inbounds nuw %struct.libraw_internal_data_t, ptr %72, i32 0, i32 4
  %74 = getelementptr inbounds nuw %struct.unpacker_data_t, ptr %73, i32 0, i32 15
  %75 = load i32, ptr %74, align 4, !tbaa !92
  %76 = icmp eq i32 %75, 10
  br i1 %76, label %77, label %78

77:                                               ; preds = %70
  store i32 0, ptr %3, align 4
  store i32 1, ptr %7, align 4
  br label %165

78:                                               ; preds = %70
  %79 = getelementptr inbounds nuw %class.LibRaw, ptr %10, i32 0, i32 3
  %80 = getelementptr inbounds nuw %struct.libraw_internal_data_t, ptr %79, i32 0, i32 4
  %81 = getelementptr inbounds nuw %struct.unpacker_data_t, ptr %80, i32 0, i32 15
  %82 = load i32, ptr %81, align 4, !tbaa !92
  %83 = icmp eq i32 %82, 4
  br i1 %83, label %84, label %89

84:                                               ; preds = %78
  %85 = getelementptr inbounds nuw %class.LibRaw, ptr %10, i32 0, i32 1
  %86 = getelementptr inbounds nuw %struct.libraw_data_t, ptr %85, i32 0, i32 12
  %87 = getelementptr inbounds nuw %struct.libraw_thumbnail_t, ptr %86, i32 0, i32 3
  %88 = load i32, ptr %87, align 8, !tbaa !94
  store i32 %88, ptr %8, align 4, !tbaa !88
  br label %140

89:                                               ; preds = %78
  %90 = getelementptr inbounds nuw %class.LibRaw, ptr %10, i32 0, i32 3
  %91 = getelementptr inbounds nuw %struct.libraw_internal_data_t, ptr %90, i32 0, i32 4
  %92 = getelementptr inbounds nuw %struct.unpacker_data_t, ptr %91, i32 0, i32 15
  %93 = load i32, ptr %92, align 4, !tbaa !92
  %94 = icmp eq i32 %93, 7
  br i1 %94, label %95, label %109

95:                                               ; preds = %89
  %96 = load i32, ptr %9, align 4, !tbaa !88
  %97 = getelementptr inbounds nuw %class.LibRaw, ptr %10, i32 0, i32 1
  %98 = getelementptr inbounds nuw %struct.libraw_data_t, ptr %97, i32 0, i32 12
  %99 = getelementptr inbounds nuw %struct.libraw_thumbnail_t, ptr %98, i32 0, i32 1
  %100 = load i16, ptr %99, align 4, !tbaa !75
  %101 = zext i16 %100 to i32
  %102 = mul nsw i32 %96, %101
  %103 = getelementptr inbounds nuw %class.LibRaw, ptr %10, i32 0, i32 1
  %104 = getelementptr inbounds nuw %struct.libraw_data_t, ptr %103, i32 0, i32 12
  %105 = getelementptr inbounds nuw %struct.libraw_thumbnail_t, ptr %104, i32 0, i32 2
  %106 = load i16, ptr %105, align 2, !tbaa !13
  %107 = zext i16 %106 to i32
  %108 = mul nsw i32 %102, %107
  store i32 %108, ptr %8, align 4, !tbaa !88
  br label %139

109:                                              ; preds = %89
  %110 = getelementptr inbounds nuw %class.LibRaw, ptr %10, i32 0, i32 3
  %111 = getelementptr inbounds nuw %struct.libraw_internal_data_t, ptr %110, i32 0, i32 4
  %112 = getelementptr inbounds nuw %struct.unpacker_data_t, ptr %111, i32 0, i32 15
  %113 = load i32, ptr %112, align 4, !tbaa !92
  %114 = icmp eq i32 %113, 8
  br i1 %114, label %115, label %137

115:                                              ; preds = %109
  %116 = load i32, ptr %9, align 4, !tbaa !88
  %117 = getelementptr inbounds nuw %class.LibRaw, ptr %10, i32 0, i32 1
  %118 = getelementptr inbounds nuw %struct.libraw_data_t, ptr %117, i32 0, i32 12
  %119 = getelementptr inbounds nuw %struct.libraw_thumbnail_t, ptr %118, i32 0, i32 1
  %120 = load i16, ptr %119, align 4, !tbaa !75
  %121 = zext i16 %120 to i32
  %122 = mul nsw i32 %116, %121
  %123 = getelementptr inbounds nuw %class.LibRaw, ptr %10, i32 0, i32 1
  %124 = getelementptr inbounds nuw %struct.libraw_data_t, ptr %123, i32 0, i32 12
  %125 = getelementptr inbounds nuw %struct.libraw_thumbnail_t, ptr %124, i32 0, i32 2
  %126 = load i16, ptr %125, align 2, !tbaa !13
  %127 = zext i16 %126 to i32
  %128 = mul nsw i32 %122, %127
  %129 = getelementptr inbounds nuw %class.LibRaw, ptr %10, i32 0, i32 1
  %130 = getelementptr inbounds nuw %struct.libraw_data_t, ptr %129, i32 0, i32 7
  %131 = getelementptr inbounds nuw %struct.libraw_raw_unpack_params_t, ptr %130, i32 0, i32 2
  %132 = load i32, ptr %131, align 8, !tbaa !121
  %133 = and i32 %132, 32
  %134 = icmp ne i32 %133, 0
  %135 = select i1 %134, i32 2, i32 1
  %136 = mul nsw i32 %128, %135
  store i32 %136, ptr %8, align 4, !tbaa !88
  br label %138

137:                                              ; preds = %109
  store i32 1, ptr %8, align 4, !tbaa !88
  br label %138

138:                                              ; preds = %137, %115
  br label %139

139:                                              ; preds = %138, %95
  br label %140

140:                                              ; preds = %139, %84
  br label %141

141:                                              ; preds = %140
  %142 = load i32, ptr %8, align 4, !tbaa !88
  %143 = icmp slt i32 %142, 0
  br i1 %143, label %144, label %145

144:                                              ; preds = %141
  store i32 0, ptr %3, align 4
  store i32 1, ptr %7, align 4
  br label %165

145:                                              ; preds = %141
  %146 = load i64, ptr %5, align 8, !tbaa !76
  %147 = icmp sgt i64 %146, 0
  br i1 %147, label %148, label %154

148:                                              ; preds = %145
  %149 = load i32, ptr %8, align 4, !tbaa !88
  %150 = sext i32 %149 to i64
  %151 = load i64, ptr %5, align 8, !tbaa !76
  %152 = icmp sgt i64 %150, %151
  br i1 %152, label %153, label %154

153:                                              ; preds = %148
  store i32 0, ptr %3, align 4
  store i32 1, ptr %7, align 4
  br label %165

154:                                              ; preds = %148, %145
  %155 = load i32, ptr %8, align 4, !tbaa !88
  %156 = sext i32 %155 to i64
  %157 = getelementptr inbounds nuw %class.LibRaw, ptr %10, i32 0, i32 3
  %158 = getelementptr inbounds nuw %struct.libraw_internal_data_t, ptr %157, i32 0, i32 0
  %159 = getelementptr inbounds nuw %struct.internal_data_t, ptr %158, i32 0, i32 5
  %160 = load i64, ptr %159, align 8, !tbaa !77
  %161 = add nsw i64 %156, %160
  %162 = load i64, ptr %6, align 8, !tbaa !76
  %163 = icmp sle i64 %161, %162
  %164 = select i1 %163, i32 1, i32 0
  store i32 %164, ptr %3, align 4
  store i32 1, ptr %7, align 4
  br label %165

165:                                              ; preds = %154, %153, %144, %77
  call void @llvm.lifetime.end.p0(i64 4, ptr %9) #9
  call void @llvm.lifetime.end.p0(i64 4, ptr %8) #9
  br label %166

166:                                              ; preds = %165, %51
  call void @llvm.lifetime.end.p0(i64 8, ptr %6) #9
  br label %167

167:                                              ; preds = %166, %39, %16
  %168 = load i32, ptr %3, align 4
  ret i32 %168
}