; Function Attrs: mustprogress uwtable
define noundef range(i32 0, 2) i32 @_ZN6LibRaw7thumbOKEx(ptr noundef nonnull readonly align 8 captures(none) dereferenceable(767680) %0, i64 noundef %1) local_unnamed_addr #2 align 2 {
  %3 = getelementptr inbounds nuw i8, ptr %0, i64 381416
  %4 = load ptr, ptr %3, align 8, !tbaa !75
  %.not = icmp eq ptr %4, null
  br i1 %.not, label %63, label %5

5:                                                ; preds = %2
  %6 = getelementptr inbounds nuw i8, ptr %0, i64 381456
  %7 = load i64, ptr %6, align 8, !tbaa !10
  %.not15 = icmp eq i64 %7, 0
  br i1 %.not15, label %8, label %16

8:                                                ; preds = %5
  %9 = getelementptr inbounds nuw i8, ptr %0, i64 193360
  %10 = load i32, ptr %9, align 8, !tbaa !88
  %.not16 = icmp eq i32 %10, 0
  br i1 %.not16, label %63, label %11

11:                                               ; preds = %8
  %12 = getelementptr inbounds nuw i8, ptr %0, i64 767584
  %.unpack = load i64, ptr %12, align 8, !tbaa !121
  %.elt17 = getelementptr inbounds nuw i8, ptr %0, i64 767592
  %.unpack18 = load i64, ptr %.elt17, align 8, !tbaa !121
  %13 = icmp eq i64 %.unpack, ptrtoint (ptr @_ZN6LibRaw17broadcom_load_rawEv to i64)
  %14 = icmp eq i64 %.unpack18, 0
  %15 = and i1 %13, %14
  br i1 %15, label %16, label %63

16:                                               ; preds = %11, %5
  %17 = load ptr, ptr %4, align 8, !tbaa !76
  %18 = getelementptr inbounds nuw i8, ptr %17, i64 48
  %19 = load ptr, ptr %18, align 8
  %20 = tail call noundef i64 %19(ptr noundef nonnull align 8 dereferenceable(8) %4)
  %21 = icmp sgt i64 %20, 4294967295
  br i1 %21, label %63, label %22

22:                                               ; preds = %16
  %23 = getelementptr inbounds nuw i8, ptr %0, i64 193364
  %24 = load i32, ptr %23, align 4, !tbaa !87
  %25 = add i32 %24, -1
  %or.cond = icmp ult i32 %25, 3
  %26 = select i1 %or.cond, i32 %24, i32 3
  %27 = getelementptr inbounds nuw i8, ptr %0, i64 381644
  %28 = load i32, ptr %27, align 4, !tbaa !86
  switch i32 %28, label %.thread [
    i32 10, label %63
    i32 4, label %29
    i32 7, label %32
    i32 8, label %41
  ]

29:                                               ; preds = %22
  %30 = getelementptr inbounds nuw i8, ptr %0, i64 193360
  %31 = load i32, ptr %30, align 8, !tbaa !88
  br label %54

32:                                               ; preds = %22
  %33 = getelementptr inbounds nuw i8, ptr %0, i64 193356
  %34 = load i16, ptr %33, align 4, !tbaa !74
  %35 = zext i16 %34 to i32
  %36 = mul nuw nsw i32 %26, %35
  %37 = getelementptr inbounds nuw i8, ptr %0, i64 193358
  %38 = load i16, ptr %37, align 2, !tbaa !73
  %39 = zext i16 %38 to i32
  %40 = mul nuw nsw i32 %36, %39
  br label %54

41:                                               ; preds = %22
  %42 = getelementptr inbounds nuw i8, ptr %0, i64 193356
  %43 = load i16, ptr %42, align 4, !tbaa !74
  %44 = zext i16 %43 to i32
  %45 = mul nuw nsw i32 %26, %44
  %46 = getelementptr inbounds nuw i8, ptr %0, i64 193358
  %47 = load i16, ptr %46, align 2, !tbaa !73
  %48 = zext i16 %47 to i32
  %49 = mul nuw nsw i32 %45, %48
  %50 = getelementptr inbounds nuw i8, ptr %0, i64 5456
  %51 = load i32, ptr %50, align 8, !tbaa !115
  %52 = lshr i32 %51, 5
  %.lobit = and i32 %52, 1
  %53 = shl nuw i32 %49, %.lobit
  br label %54

54:                                               ; preds = %29, %41, %32
  %.010 = phi i32 [ %31, %29 ], [ %40, %32 ], [ %53, %41 ]
  %55 = icmp slt i32 %.010, 0
  br i1 %55, label %63, label %.thread

.thread:                                          ; preds = %22, %54
  %.01024 = phi i32 [ %.010, %54 ], [ 1, %22 ]
  %56 = icmp sgt i64 %1, 0
  %57 = zext nneg i32 %.01024 to i64
  %58 = icmp samesign ult i64 %1, %57
  %or.cond22 = select i1 %56, i1 %58, i1 false
  br i1 %or.cond22, label %63, label %59

59:                                               ; preds = %.thread
  %60 = load i64, ptr %6, align 8, !tbaa !10
  %61 = add nsw i64 %60, %57
  %.not20 = icmp sle i64 %61, %20
  %62 = zext i1 %.not20 to i32
  br label %63

63:                                               ; preds = %16, %.thread, %54, %22, %59, %8, %11, %2
  %.0 = phi i32 [ 0, %2 ], [ 0, %11 ], [ 0, %8 ], [ 0, %16 ], [ %62, %59 ], [ 0, %22 ], [ 0, %54 ], [ 0, %.thread ]
  ret i32 %.0
}